; ModuleID = 'source-C-CXX/25/548.c'
source_filename = "source-C-CXX/25/548.c"
target datalayout = "e-m:e-p270:32:32-p271:32:32-p272:64:64-i64:64-f80:128-n8:16:32:64-S128"
target triple = "x86_64-pc-linux-gnu"

@.str = private unnamed_addr constant [3 x i8] c"%c\00", align 1

; Function Attrs: nofree nounwind sspstrong uwtable
define dso_local void @main() local_unnamed_addr #0 {
  %1 = alloca i8, align 1
  call void @llvm.lifetime.start.p0i8(i64 1, i8* nonnull %1) #4
  br label %2

2:                                                ; preds = %16, %0
  %3 = phi i32 [ 0, %0 ], [ %18, %16 ]
  %4 = call i32 (i8*, ...) @__isoc99_scanf(i8* getelementptr inbounds ([3 x i8], [3 x i8]* @.str, i64 0, i64 0), i8* nonnull %1)
  %5 = load i8, i8* %1, align 1, !tbaa !5
  %6 = icmp eq i8 %5, 32
  br i1 %6, label %7, label %9

7:                                                ; preds = %2
  %8 = icmp eq i32 %3, 0
  br i1 %8, label %11, label %16

9:                                                ; preds = %2
  %10 = sext i8 %5 to i32
  br label %11

11:                                               ; preds = %7, %9
  %12 = phi i32 [ %10, %9 ], [ 32, %7 ]
  %13 = phi i32 [ 0, %9 ], [ 1, %7 ]
  %14 = call i32 @putchar(i32 %12)
  %15 = load i8, i8* %1, align 1, !tbaa !5
  br label %16

16:                                               ; preds = %11, %7
  %17 = phi i8 [ %15, %11 ], [ 32, %7 ]
  %18 = phi i32 [ %13, %11 ], [ 1, %7 ]
  %19 = icmp eq i8 %17, 10
  br i1 %19, label %20, label %2, !llvm.loop !8

20:                                               ; preds = %16
  call void @llvm.lifetime.end.p0i8(i64 1, i8* nonnull %1) #4
  ret void
}

; Function Attrs: argmemonly mustprogress nofree nosync nounwind willreturn
declare void @llvm.lifetime.start.p0i8(i64 immarg, i8* nocapture) #1

; Function Attrs: nofree nounwind
declare noundef i32 @__isoc99_scanf(i8* nocapture noundef readonly, ...) local_unnamed_addr #2

; Function Attrs: argmemonly mustprogress nofree nosync nounwind willreturn
declare void @llvm.lifetime.end.p0i8(i64 immarg, i8* nocapture) #1

; Function Attrs: nofree nounwind
declare noundef i32 @putchar(i32 noundef) local_unnamed_addr #3


!llvm.module.flags = !{!0, !1, !2, !3}
!llvm.ident = !{!4}

!0 = !{i32 1, !"wchar_size", i32 4}
!1 = !{i32 7, !"PIC Level", i32 2}
!2 = !{i32 7, !"PIE Level", i32 2}
!3 = !{i32 7, !"uwtable", i32 1}
!4 = !{!"clang version 13.0.0"}
!5 = !{!6, !6, i64 0}
!6 = !{!"omnipotent char", !7, i64 0}
!7 = !{!"Simple C/C++ TBAA"}
!8 = distinct !{!8, !9}
!9 = !{!"llvm.loop.mustprogress"}
